target datalayout = "e-m:e-p270:32:32-p271:32:32-p272:64:64-i64:64-i128:128-f80:128-n8:16:32:64-S128"
target triple = "x86_64-pc-linux-gnu"

%struct.block_data_arg = type { ptr, ptr, ptr }
%struct.info = type { i32, i32, i32, i32, i32, i32, ptr, ptr }

@hf_pcapng_cb_pen = internal global i32 0, align 4
@hf_pcapng_cb_data = internal global i32 0, align 4

; Function Attrs: null_pointer_is_valid sspstrong uwtable
define internal void @dissect_cb_data(ptr noundef %0, ptr noundef %1, ptr noundef %2, ptr noundef %3) #0 {
  %5 = alloca ptr, align 8
  %6 = alloca ptr, align 8
  %7 = alloca ptr, align 8
  %8 = alloca ptr, align 8
  %9 = alloca i32, align 4
  store ptr %0, ptr %5, align 8
  store ptr %1, ptr %6, align 8
  store ptr %2, ptr %7, align 8
  store ptr %3, ptr %8, align 8
  call void @llvm.lifetime.start.p0(i64 4, ptr %9) #14
  store i32 0, ptr %9, align 4
  %10 = load ptr, ptr %5, align 8
  %11 = load i32, ptr @hf_pcapng_cb_pen, align 4
  %12 = load ptr, ptr %7, align 8
  %13 = load i32, ptr %9, align 4
  %14 = load ptr, ptr %8, align 8
  %15 = getelementptr inbounds nuw %struct.block_data_arg, ptr %14, i32 0, i32 2
  %16 = load ptr, ptr %15, align 8
  %17 = getelementptr inbounds nuw %struct.info, ptr %16, i32 0, i32 5
  %18 = load i32, ptr %17, align 4
  %19 = call ptr @proto_tree_add_item(ptr noundef %10, i32 noundef %11, ptr noundef %12, i32 noundef %13, i32 noundef 4, i32 noundef %18)
  %20 = load i32, ptr %9, align 4
  %21 = add i32 %20, 4
  store i32 %21, ptr %9, align 4
  %22 = load ptr, ptr %5, align 8
  %23 = load i32, ptr @hf_pcapng_cb_data, align 4
  %24 = load ptr, ptr %7, align 8
  %25 = load i32, ptr %9, align 4
  %26 = load ptr, ptr %7, align 8
  %27 = call i32 @tvb_reported_length(ptr noundef %26)
  %28 = load i32, ptr %9, align 4
  %29 = sub i32 %27, %28
  %30 = load ptr, ptr %8, align 8
  %31 = getelementptr inbounds nuw %struct.block_data_arg, ptr %30, i32 0, i32 2
  %32 = load ptr, ptr %31, align 8
  %33 = getelementptr inbounds nuw %struct.info, ptr %32, i32 0, i32 5
  %34 = load i32, ptr %33, align 4
  %35 = call ptr @proto_tree_add_item(ptr noundef %22, i32 noundef %23, ptr noundef %24, i32 noundef %25, i32 noundef %29, i32 noundef %34)
  call void @llvm.lifetime.end.p0(i64 4, ptr %9) #14
  ret void
}