; Function Attrs: null_pointer_is_valid sspstrong uwtable
define internal fastcc void @dissect_cb_data(ptr noundef %0, ptr noundef %1, ptr noundef readonly captures(none) %2) unnamed_addr #0 {
  %4 = load i32, ptr @hf_pcapng_cb_pen, align 4
  %5 = getelementptr inbounds nuw i8, ptr %2, i64 16
  %6 = load ptr, ptr %5, align 8
  %7 = getelementptr inbounds nuw i8, ptr %6, i64 20
  %8 = load i32, ptr %7, align 4
  %9 = tail call ptr @proto_tree_add_item(ptr noundef %0, i32 noundef %4, ptr noundef %1, i32 noundef 0, i32 noundef 4, i32 noundef %8)
  %10 = load i32, ptr @hf_pcapng_cb_data, align 4
  %11 = tail call i32 @tvb_reported_length(ptr noundef %1)
  %12 = add i32 %11, -4
  %13 = load ptr, ptr %5, align 8
  %14 = getelementptr inbounds nuw i8, ptr %13, i64 20
  %15 = load i32, ptr %14, align 4
  %16 = tail call ptr @proto_tree_add_item(ptr noundef %0, i32 noundef %10, ptr noundef %1, i32 noundef 4, i32 noundef %12, i32 noundef %15)
  ret void
}